target datalayout = "e-m:e-p270:32:32-p271:32:32-p272:64:64-i64:64-i128:128-f80:128-n8:16:32:64-S128"
target triple = "x86_64-pc-linux-gnu"

%"struct.open_spiel::algorithms::CorrDistConfig" = type { i8, %"class.std::__cxx11::basic_string" }
%"class.std::__cxx11::basic_string" = type { %"struct.std::__cxx11::basic_string<char>::_Alloc_hider", i64, %union.anon }
%"struct.std::__cxx11::basic_string<char>::_Alloc_hider" = type { ptr }
%union.anon = type { i64, [8 x i8] }
%"class.std::vector.10" = type { %"struct.std::_Vector_base.11" }
%"struct.std::_Vector_base.11" = type { %"struct.std::_Vector_base<std::pair<long, double>, std::allocator<std::pair<long, double>>>::_Vector_impl" }
%"struct.std::_Vector_base<std::pair<long, double>, std::allocator<std::pair<long, double>>>::_Vector_impl" = type { %"struct.std::_Vector_base<std::pair<long, double>, std::allocator<std::pair<long, double>>>::_Vector_impl_data" }
%"struct.std::_Vector_base<std::pair<long, double>, std::allocator<std::pair<long, double>>>::_Vector_impl_data" = type { ptr, ptr, ptr }
%"class.open_spiel::TabularPolicy" = type { %"class.open_spiel::Policy", %"class.std::unordered_map" }
%"class.open_spiel::Policy" = type { ptr }
%"class.std::unordered_map" = type { %"class.std::_Hashtable" }
%"class.std::_Hashtable" = type { ptr, i64, %"struct.std::__detail::_Hash_node_base", i64, %"struct.std::__detail::_Prime_rehash_policy", ptr }
%"struct.std::__detail::_Hash_node_base" = type { ptr }
%"struct.std::__detail::_Prime_rehash_policy" = type { float, i64 }
%"class.open_spiel::algorithms::CETabularPolicy" = type { %"class.open_spiel::TabularPolicy", %"struct.open_spiel::algorithms::CorrDistConfig" }

@.str = private unnamed_addr constant [136 x i8] c"generated/home/dtcxzyw/WorkSpace/Projects/compilers/llvm-opt-benchmark/bench/openspiel/open_spiel/open_spiel/algorithms/corr_dist/ce.cc\00", align 1
@.str.1 = private unnamed_addr constant [2 x i8] c":\00", align 1
@.str.4 = private unnamed_addr constant [2 x i8] c")\00", align 1
@.str.6 = private unnamed_addr constant [2 x i8] c" \00", align 1
@.str.9 = private unnamed_addr constant [4 x i8] c" = \00", align 1
@.str.10 = private unnamed_addr constant [23 x i8] c", std::string::npos = \00", align 1
@.str.21 = private unnamed_addr constant [13 x i8] c" CHECK_TRUE(\00", align 1
@_ZTIN10open_spiel5StateE = external constant ptr
@_ZTIN10open_spiel10algorithms7CEStateE = constant { ptr, ptr, ptr } { ptr getelementptr inbounds (ptr, ptr @_ZTVN10__cxxabiv120__si_class_type_infoE, i64 2), ptr @_ZTSN10open_spiel10algorithms7CEStateE, ptr @_ZTIN10open_spiel12WrappedStateE }, align 8
@.str.23 = private unnamed_addr constant [20 x i8] c"ce_state != nullptr\00", align 1
@.str.24 = private unnamed_addr constant [25 x i8] c"idx != std::string::npos\00", align 1
@.str.25 = private unnamed_addr constant [5 x i8] c"\0Aidx\00", align 1

; Function Attrs: mustprogress uwtable
define linkonce_odr void @_ZNK10open_spiel5State22InformationStateStringB5cxx11Ev(ptr dead_on_unwind noalias writable sret(%"class.std::__cxx11::basic_string") align 8 %0, ptr noundef nonnull align 8 dereferenceable(60) %1) #4 comdat align 2 {
  %3 = alloca ptr, align 8
  %4 = alloca ptr, align 8
  store ptr %0, ptr %3, align 8
  store ptr %1, ptr %4, align 8
  %5 = load ptr, ptr %4, align 8
  %6 = load ptr, ptr %5, align 8
  %7 = getelementptr inbounds ptr, ptr %6, i64 2
  %8 = load ptr, ptr %7, align 8
  %9 = call noundef i32 %8(ptr noundef nonnull align 8 dereferenceable(60) %5)
  %10 = load ptr, ptr %5, align 8
  %11 = getelementptr inbounds ptr, ptr %10, i64 19
  %12 = load ptr, ptr %11, align 8
  call void %12(ptr dead_on_unwind writable sret(%"class.std::__cxx11::basic_string") align 8 %0, ptr noundef nonnull align 8 dereferenceable(60) %5, i32 noundef %9)
  ret void
}

; Function Attrs: mustprogress uwtable
define void @_ZNK10open_spiel10algorithms15CETabularPolicy14GetStatePolicyERKNS_5StateE(ptr dead_on_unwind noalias writable sret(%"class.std::vector.10") align 8 %0, ptr noundef nonnull align 8 dereferenceable(104) %1, ptr noundef nonnull align 8 dereferenceable(60) %2) unnamed_addr #4 align 2 personality ptr @__gxx_personality_v0 {
  %4 = alloca ptr, align 8
  %5 = alloca ptr, align 8
  %6 = alloca ptr, align 8
  %7 = alloca ptr, align 8
  %8 = alloca %"class.std::__cxx11::basic_string", align 8
  %9 = alloca i32, align 4
  %10 = alloca ptr, align 8
  %11 = alloca i32, align 4
  %12 = alloca %"class.std::__cxx11::basic_string", align 8
  %13 = alloca i64, align 8
  %14 = alloca i64, align 8
  %15 = alloca i64, align 8
  %16 = alloca %"class.std::__cxx11::basic_string", align 8
  %17 = alloca i32, align 4
  %18 = alloca %"class.std::__cxx11::basic_string", align 8
  store ptr %0, ptr %4, align 8
  store ptr %1, ptr %5, align 8
  store ptr %2, ptr %6, align 8
  %19 = load ptr, ptr %5, align 8
  %20 = load ptr, ptr %6, align 8
  %21 = icmp eq ptr %20, null
  br i1 %21, label %24, label %22

22:                                               ; preds = %3
  %23 = call ptr @__dynamic_cast(ptr %20, ptr @_ZTIN10open_spiel5StateE, ptr @_ZTIN10open_spiel10algorithms7CEStateE, i64 0) #3
  br label %25

24:                                               ; preds = %3
  br label %25

25:                                               ; preds = %24, %22
  %26 = phi ptr [ %23, %22 ], [ null, %24 ]
  store ptr %26, ptr %7, align 8
  br label %27

27:                                               ; preds = %25
  %28 = load ptr, ptr %7, align 8
  %29 = icmp ne ptr %28, null
  %30 = xor i1 %29, true
  br i1 %30, label %31, label %37

31:                                               ; preds = %27
  store i32 167, ptr %9, align 4
  call void @_ZN10open_spiel8internal11SpielStrCatIJRA136_KcRA2_S2_iRA13_S2_RA20_S2_S6_EEENSt7__cxx1112basic_stringIcSt11char_traitsIcESaIcEEEDpOT_(ptr dead_on_unwind writable sret(%"class.std::__cxx11::basic_string") align 8 %8, ptr noundef nonnull align 1 dereferenceable(136) @.str, ptr noundef nonnull align 1 dereferenceable(2) @.str.1, ptr noundef nonnull align 4 dereferenceable(4) %9, ptr noundef nonnull align 1 dereferenceable(13) @.str.21, ptr noundef nonnull align 1 dereferenceable(20) @.str.23, ptr noundef nonnull align 1 dereferenceable(2) @.str.4)
  invoke void @_ZN10open_spiel15SpielFatalErrorERKNSt7__cxx1112basic_stringIcSt11char_traitsIcESaIcEEE(ptr noundef nonnull align 8 dereferenceable(32) %8) #20
          to label %32 unwind label %33

32:                                               ; preds = %31
  unreachable

33:                                               ; preds = %31
  %34 = landingpad { ptr, i32 }
          cleanup
  %35 = extractvalue { ptr, i32 } %34, 0
  store ptr %35, ptr %10, align 8
  %36 = extractvalue { ptr, i32 } %34, 1
  store i32 %36, ptr %11, align 4
  call void @_ZNSt7__cxx1112basic_stringIcSt11char_traitsIcESaIcEED1Ev(ptr noundef nonnull align 8 dereferenceable(32) %8) #3
  br label %70

37:                                               ; preds = %27
  %38 = load ptr, ptr %6, align 8
  call void @_ZNK10open_spiel5State22InformationStateStringB5cxx11Ev(ptr dead_on_unwind writable sret(%"class.std::__cxx11::basic_string") align 8 %12, ptr noundef nonnull align 8 dereferenceable(60) %38)
  %39 = getelementptr inbounds nuw %"class.open_spiel::algorithms::CETabularPolicy", ptr %19, i32 0, i32 1
  %40 = getelementptr inbounds nuw %"struct.open_spiel::algorithms::CorrDistConfig", ptr %39, i32 0, i32 1
  %41 = call noundef i64 @_ZNKSt7__cxx1112basic_stringIcSt11char_traitsIcESaIcEE4findERKS4_m(ptr noundef nonnull align 8 dereferenceable(32) %12, ptr noundef nonnull align 8 dereferenceable(32) %40, i64 noundef 0) #3
  store i64 %41, ptr %13, align 8
  br label %42

42:                                               ; preds = %37
  %43 = load i64, ptr %13, align 8
  store i64 %43, ptr %14, align 8
  store i64 -1, ptr %15, align 8
  %44 = load i64, ptr %14, align 8
  %45 = load i64, ptr %15, align 8
  %46 = icmp ne i64 %44, %45
  br i1 %46, label %58, label %47

47:                                               ; preds = %42
  store i32 171, ptr %17, align 4
  invoke void @_ZN10open_spiel8internal11SpielStrCatIJRA136_KcRA2_S2_iS6_RA25_S2_RA5_S2_RA4_S2_RmRA23_S2_SD_EEENSt7__cxx1112basic_stringIcSt11char_traitsIcESaIcEEEDpOT_(ptr dead_on_unwind writable sret(%"class.std::__cxx11::basic_string") align 8 %16, ptr noundef nonnull align 1 dereferenceable(136) @.str, ptr noundef nonnull align 1 dereferenceable(2) @.str.1, ptr noundef nonnull align 4 dereferenceable(4) %17, ptr noundef nonnull align 1 dereferenceable(2) @.str.6, ptr noundef nonnull align 1 dereferenceable(25) @.str.24, ptr noundef nonnull align 1 dereferenceable(5) @.str.25, ptr noundef nonnull align 1 dereferenceable(4) @.str.9, ptr noundef nonnull align 8 dereferenceable(8) %14, ptr noundef nonnull align 1 dereferenceable(23) @.str.10, ptr noundef nonnull align 8 dereferenceable(8) %15)
          to label %48 unwind label %50

48:                                               ; preds = %47
  invoke void @_ZN10open_spiel15SpielFatalErrorERKNSt7__cxx1112basic_stringIcSt11char_traitsIcESaIcEEE(ptr noundef nonnull align 8 dereferenceable(32) %16) #20
          to label %49 unwind label %54

49:                                               ; preds = %48
  unreachable

50:                                               ; preds = %60, %47
  %51 = landingpad { ptr, i32 }
          cleanup
  %52 = extractvalue { ptr, i32 } %51, 0
  store ptr %52, ptr %10, align 8
  %53 = extractvalue { ptr, i32 } %51, 1
  store i32 %53, ptr %11, align 4
  br label %69

54:                                               ; preds = %48
  %55 = landingpad { ptr, i32 }
          cleanup
  %56 = extractvalue { ptr, i32 } %55, 0
  store ptr %56, ptr %10, align 8
  %57 = extractvalue { ptr, i32 } %55, 1
  store i32 %57, ptr %11, align 4
  call void @_ZNSt7__cxx1112basic_stringIcSt11char_traitsIcESaIcEED1Ev(ptr noundef nonnull align 8 dereferenceable(32) %16) #3
  br label %69

58:                                               ; preds = %42
  br label %59

59:                                               ; preds = %58
  br label %60

60:                                               ; preds = %59
  %61 = load i64, ptr %13, align 8
  invoke void @_ZNKSt7__cxx1112basic_stringIcSt11char_traitsIcESaIcEE6substrEmm(ptr dead_on_unwind writable sret(%"class.std::__cxx11::basic_string") align 8 %18, ptr noundef nonnull align 8 dereferenceable(32) %12, i64 noundef 0, i64 noundef %61)
          to label %62 unwind label %50

62:                                               ; preds = %60
  %63 = load ptr, ptr %7, align 8
  invoke void @_ZNK10open_spiel10algorithms7CEState22RecommendedStatePolicyERKNSt7__cxx1112basic_stringIcSt11char_traitsIcESaIcEEE(ptr dead_on_unwind writable sret(%"class.std::vector.10") align 8 %0, ptr noundef nonnull align 8 dereferenceable(124) %63, ptr noundef nonnull align 8 dereferenceable(32) %18)
          to label %64 unwind label %65

64:                                               ; preds = %62
  call void @_ZNSt7__cxx1112basic_stringIcSt11char_traitsIcESaIcEED1Ev(ptr noundef nonnull align 8 dereferenceable(32) %18) #3
  call void @_ZNSt7__cxx1112basic_stringIcSt11char_traitsIcESaIcEED1Ev(ptr noundef nonnull align 8 dereferenceable(32) %12) #3
  ret void

65:                                               ; preds = %62
  %66 = landingpad { ptr, i32 }
          cleanup
  %67 = extractvalue { ptr, i32 } %66, 0
  store ptr %67, ptr %10, align 8
  %68 = extractvalue { ptr, i32 } %66, 1
  store i32 %68, ptr %11, align 4
  call void @_ZNSt7__cxx1112basic_stringIcSt11char_traitsIcESaIcEED1Ev(ptr noundef nonnull align 8 dereferenceable(32) %18) #3
  br label %69

69:                                               ; preds = %65, %54, %50
  call void @_ZNSt7__cxx1112basic_stringIcSt11char_traitsIcESaIcEED1Ev(ptr noundef nonnull align 8 dereferenceable(32) %12) #3
  br label %70

70:                                               ; preds = %69, %33
  %71 = load ptr, ptr %10, align 8
  %72 = load i32, ptr %11, align 4
  %73 = insertvalue { ptr, i32 } poison, ptr %71, 0
  %74 = insertvalue { ptr, i32 } %73, i32 %72, 1
  resume { ptr, i32 } %74
}