; Function Attrs: mustprogress uwtable
define void @_ZNK10open_spiel10algorithms15CETabularPolicy14GetStatePolicyERKNS_5StateE(ptr dead_on_unwind noalias writable writeonly sret(%"class.std::vector.10") align 8 captures(none) %0, ptr noundef nonnull align 8 dereferenceable(104) %1, ptr noundef nonnull align 8 dereferenceable(60) %2) unnamed_addr #3 align 2 personality ptr @__gxx_personality_v0 {
  %4 = alloca %"class.std::__cxx11::basic_string", align 8
  %5 = alloca i32, align 4
  %6 = alloca %"class.std::__cxx11::basic_string", align 8
  %7 = alloca i64, align 8
  %8 = alloca i64, align 8
  %9 = alloca %"class.std::__cxx11::basic_string", align 8
  %10 = alloca i32, align 4
  %11 = alloca %"class.std::__cxx11::basic_string", align 8
  %12 = tail call ptr @__dynamic_cast(ptr nonnull %2, ptr nonnull @_ZTIN10open_spiel5StateE, ptr nonnull @_ZTIN10open_spiel10algorithms7CEStateE, i64 0) #25
  %.not = icmp eq ptr %12, null
  br i1 %.not, label %13, label %17

13:                                               ; preds = %3
  store i32 167, ptr %5, align 4
  call void @_ZN10open_spiel8internal11SpielStrCatIJRA136_KcRA2_S2_iRA13_S2_RA20_S2_S6_EEENSt7__cxx1112basic_stringIcSt11char_traitsIcESaIcEEEDpOT_(ptr dead_on_unwind nonnull writable sret(%"class.std::__cxx11::basic_string") align 8 %4, ptr noundef nonnull align 1 dereferenceable(136) @.str, ptr noundef nonnull align 1 dereferenceable(2) @.str.1, ptr noundef nonnull align 4 dereferenceable(4) %5, ptr noundef nonnull align 1 dereferenceable(13) @.str.21, ptr noundef nonnull align 1 dereferenceable(20) @.str.23, ptr noundef nonnull align 1 dereferenceable(2) @.str.4)
  invoke void @_ZN10open_spiel15SpielFatalErrorERKNSt7__cxx1112basic_stringIcSt11char_traitsIcESaIcEEE(ptr noundef nonnull align 8 dereferenceable(32) %4) #26
          to label %14 unwind label %15

14:                                               ; preds = %13
  unreachable

15:                                               ; preds = %13
  %16 = landingpad { ptr, i32 }
          cleanup
  br label %39

17:                                               ; preds = %3
  %18 = load ptr, ptr %2, align 8, !noalias !46
  %19 = getelementptr inbounds nuw i8, ptr %18, i64 16
  %20 = load ptr, ptr %19, align 8, !noalias !46
  %21 = tail call noundef i32 %20(ptr noundef nonnull align 8 dereferenceable(60) %2), !noalias !46
  %22 = load ptr, ptr %2, align 8, !noalias !46
  %23 = getelementptr inbounds nuw i8, ptr %22, i64 152
  %24 = load ptr, ptr %23, align 8, !noalias !46
  call void %24(ptr dead_on_unwind nonnull writable sret(%"class.std::__cxx11::basic_string") align 8 %6, ptr noundef nonnull align 8 dereferenceable(60) %2, i32 noundef %21)
  %25 = getelementptr inbounds nuw i8, ptr %1, i64 72
  %26 = call noundef i64 @_ZNKSt7__cxx1112basic_stringIcSt11char_traitsIcESaIcEE4findERKS4_m(ptr noundef nonnull align 8 dereferenceable(32) %6, ptr noundef nonnull align 8 dereferenceable(32) %25, i64 noundef 0) #25
  store i64 %26, ptr %7, align 8
  store i64 -1, ptr %8, align 8
  %.not10 = icmp eq i64 %26, -1
  br i1 %.not10, label %27, label %34

27:                                               ; preds = %17
  store i32 171, ptr %10, align 4
  invoke void @_ZN10open_spiel8internal11SpielStrCatIJRA136_KcRA2_S2_iS6_RA25_S2_RA5_S2_RA4_S2_RmRA23_S2_SD_EEENSt7__cxx1112basic_stringIcSt11char_traitsIcESaIcEEEDpOT_(ptr dead_on_unwind nonnull writable sret(%"class.std::__cxx11::basic_string") align 8 %9, ptr noundef nonnull align 1 dereferenceable(136) @.str, ptr noundef nonnull align 1 dereferenceable(2) @.str.1, ptr noundef nonnull align 4 dereferenceable(4) %10, ptr noundef nonnull align 1 dereferenceable(2) @.str.6, ptr noundef nonnull align 1 dereferenceable(25) @.str.24, ptr noundef nonnull align 1 dereferenceable(5) @.str.25, ptr noundef nonnull align 1 dereferenceable(4) @.str.9, ptr noundef nonnull align 8 dereferenceable(8) %7, ptr noundef nonnull align 1 dereferenceable(23) @.str.10, ptr noundef nonnull align 8 dereferenceable(8) %8)
          to label %28 unwind label %30

28:                                               ; preds = %27
  invoke void @_ZN10open_spiel15SpielFatalErrorERKNSt7__cxx1112basic_stringIcSt11char_traitsIcESaIcEEE(ptr noundef nonnull align 8 dereferenceable(32) %9) #26
          to label %29 unwind label %32

29:                                               ; preds = %28
  unreachable

30:                                               ; preds = %34, %27
  %31 = landingpad { ptr, i32 }
          cleanup
  br label %39

32:                                               ; preds = %28
  %33 = landingpad { ptr, i32 }
          cleanup
  call void @_ZNSt7__cxx1112basic_stringIcSt11char_traitsIcESaIcEED1Ev(ptr noundef nonnull align 8 dereferenceable(32) %9) #25
  br label %39

34:                                               ; preds = %17
  invoke void @_ZNKSt7__cxx1112basic_stringIcSt11char_traitsIcESaIcEE6substrEmm(ptr dead_on_unwind nonnull writable sret(%"class.std::__cxx11::basic_string") align 8 %11, ptr noundef nonnull align 8 dereferenceable(32) %6, i64 noundef 0, i64 noundef %26)
          to label %35 unwind label %30

35:                                               ; preds = %34
  invoke void @_ZNK10open_spiel10algorithms7CEState22RecommendedStatePolicyERKNSt7__cxx1112basic_stringIcSt11char_traitsIcESaIcEEE(ptr dead_on_unwind writable sret(%"class.std::vector.10") align 8 %0, ptr noundef nonnull align 8 dereferenceable(124) %12, ptr noundef nonnull align 8 dereferenceable(32) %11)
          to label %36 unwind label %37

36:                                               ; preds = %35
  call void @_ZNSt7__cxx1112basic_stringIcSt11char_traitsIcESaIcEED1Ev(ptr noundef nonnull align 8 dereferenceable(32) %11) #25
  call void @_ZNSt7__cxx1112basic_stringIcSt11char_traitsIcESaIcEED1Ev(ptr noundef nonnull align 8 dereferenceable(32) %6) #25
  ret void

37:                                               ; preds = %35
  %38 = landingpad { ptr, i32 }
          cleanup
  call void @_ZNSt7__cxx1112basic_stringIcSt11char_traitsIcESaIcEED1Ev(ptr noundef nonnull align 8 dereferenceable(32) %11) #25
  br label %39

39:                                               ; preds = %30, %32, %37, %15
  %.sink = phi ptr [ %4, %15 ], [ %6, %37 ], [ %6, %32 ], [ %6, %30 ]
  %.pn12 = phi { ptr, i32 } [ %16, %15 ], [ %38, %37 ], [ %33, %32 ], [ %31, %30 ]
  call void @_ZNSt7__cxx1112basic_stringIcSt11char_traitsIcESaIcEED1Ev(ptr noundef nonnull align 8 dereferenceable(32) %.sink) #25
  resume { ptr, i32 } %.pn12
}